; Function Attrs: mustprogress nofree norecurse nosync nounwind willreturn memory(argmem: write) uwtable
define void @_ZN4YAML10DirectivesC2Ev(ptr noundef nonnull align 8 dereferenceable(64) initializes((0, 1), (4, 12), (16, 40)) %0) unnamed_addr #0 align 2 personality ptr @__gxx_personality_v0 {
  store i8 1, ptr %0, align 8, !tbaa !3
  %2 = getelementptr inbounds nuw i8, ptr %0, i64 4
  store i32 1, ptr %2, align 4, !tbaa !9
  %3 = getelementptr inbounds nuw i8, ptr %0, i64 8
  store i32 2, ptr %3, align 8, !tbaa !10
  %4 = getelementptr inbounds nuw i8, ptr %0, i64 16
  %5 = getelementptr inbounds nuw i8, ptr %0, i64 24
  %6 = getelementptr inbounds nuw i8, ptr %0, i64 40
  tail call void @llvm.memset.p0.i64(ptr noundef nonnull align 8 dereferenceable(24) %4, i8 0, i64 24, i1 false)
  store ptr %5, ptr %6, align 8, !tbaa !11
  %7 = getelementptr inbounds nuw i8, ptr %0, i64 48
  store ptr %5, ptr %7, align 8, !tbaa !18
  %8 = getelementptr inbounds nuw i8, ptr %0, i64 56
  store i64 0, ptr %8, align 8, !tbaa !19
  ret void
}